#include <math.h>
#include <stdio.h>
#include <stdlib.h>
#include <string.h>

int main()
{ 
 int nn,kk;
 int calculate(int n,int k);//???? 
 
 scanf("%d %d",&nn,&kk);
 calculate(nn,kk);
 
 return 0;
}
 
     int calculate(int n,int k)
    {int na,i;
     int sum[100];//sum????????????????sum0?????????????????? 
     
        na=1;//?????????????? 
        sum[0]=na*n+k;//???????????? 
    
            for(i=1;i<=n-1;i++)
             {  sum[i]=n*sum[i-1]/(n-1)+k;//???i+1??????sum?i?? ???i??????sum?i-1)??? ?*? 
                 if((n*sum[i-1]%(n-1))!=0){
                                              na=na+1;
                                              sum[0]=na*n+k;
                                              i=0;
                                             }//?? n*sum[i-1]?????n-1????? ?*????????????
                                             //???????????????for???
                                             //??????????????????????????????????????????????????? 
                
              }
      printf("%d",sum[n-1]);
    }