; ModuleID = '54/1094.c'
source_filename = "54/1094.c"
target datalayout = "e-m:e-p270:32:32-p271:32:32-p272:64:64-i64:64-f80:128-n8:16:32:64-S128"
target triple = "x86_64-pc-linux-gnu"

@.str = private unnamed_addr constant [6 x i8] c"%d %d\00", align 1
@.str.1 = private unnamed_addr constant [3 x i8] c"%d\00", align 1

; Function Attrs: noinline nounwind uwtable
define dso_local i32 @main() #0 {
  %1 = alloca i32, align 4
  %2 = alloca i32, align 4
  %3 = alloca i32, align 4
  store i32 0, i32* %1, align 4
  %4 = call i32 (i8*, ...) @__isoc99_scanf(i8* getelementptr inbounds ([6 x i8], [6 x i8]* @.str, i64 0, i64 0), i32* %2, i32* %3)
  %5 = load i32, i32* %2, align 4
  %6 = load i32, i32* %3, align 4
  %7 = call i32 @calculate(i32 %5, i32 %6)
  ret i32 0
}

declare dso_local i32 @__isoc99_scanf(i8*, ...) #1

; Function Attrs: noinline nounwind uwtable
define dso_local i32 @calculate(i32 %0, i32 %1) #0 {
  %3 = alloca i32, align 4
  %4 = alloca i32, align 4
  %5 = alloca i32, align 4
  %6 = alloca i32, align 4
  %7 = alloca i32, align 4
  %8 = alloca [100 x i32], align 16
  store i32 %0, i32* %4, align 4
  store i32 %1, i32* %5, align 4
  store i32 1, i32* %6, align 4
  %9 = load i32, i32* %6, align 4
  %10 = load i32, i32* %4, align 4
  %11 = mul nsw i32 %9, %10
  %12 = load i32, i32* %5, align 4
  %13 = add nsw i32 %11, %12
  %14 = getelementptr inbounds [100 x i32], [100 x i32]* %8, i64 0, i64 0
  store i32 %13, i32* %14, align 16
  store i32 1, i32* %7, align 4
  br label %15

15:                                               ; preds = %57, %2
  %16 = load i32, i32* %7, align 4
  %17 = load i32, i32* %4, align 4
  %18 = sub nsw i32 %17, 1
  %19 = icmp sle i32 %16, %18
  br i1 %19, label %20, label %60

20:                                               ; preds = %15
  %21 = load i32, i32* %4, align 4
  %22 = load i32, i32* %7, align 4
  %23 = sub nsw i32 %22, 1
  %24 = sext i32 %23 to i64
  %25 = getelementptr inbounds [100 x i32], [100 x i32]* %8, i64 0, i64 %24
  %26 = load i32, i32* %25, align 4
  %27 = mul nsw i32 %21, %26
  %28 = load i32, i32* %4, align 4
  %29 = sub nsw i32 %28, 1
  %30 = sdiv i32 %27, %29
  %31 = load i32, i32* %5, align 4
  %32 = add nsw i32 %30, %31
  %33 = load i32, i32* %7, align 4
  %34 = sext i32 %33 to i64
  %35 = getelementptr inbounds [100 x i32], [100 x i32]* %8, i64 0, i64 %34
  store i32 %32, i32* %35, align 4
  %36 = load i32, i32* %4, align 4
  %37 = load i32, i32* %7, align 4
  %38 = sub nsw i32 %37, 1
  %39 = sext i32 %38 to i64
  %40 = getelementptr inbounds [100 x i32], [100 x i32]* %8, i64 0, i64 %39
  %41 = load i32, i32* %40, align 4
  %42 = mul nsw i32 %36, %41
  %43 = load i32, i32* %4, align 4
  %44 = sub nsw i32 %43, 1
  %45 = srem i32 %42, %44
  %46 = icmp ne i32 %45, 0
  br i1 %46, label %47, label %56

47:                                               ; preds = %20
  %48 = load i32, i32* %6, align 4
  %49 = add nsw i32 %48, 1
  store i32 %49, i32* %6, align 4
  %50 = load i32, i32* %6, align 4
  %51 = load i32, i32* %4, align 4
  %52 = mul nsw i32 %50, %51
  %53 = load i32, i32* %5, align 4
  %54 = add nsw i32 %52, %53
  %55 = getelementptr inbounds [100 x i32], [100 x i32]* %8, i64 0, i64 0
  store i32 %54, i32* %55, align 16
  store i32 0, i32* %7, align 4
  br label %56

56:                                               ; preds = %47, %20
  br label %57

57:                                               ; preds = %56
  %58 = load i32, i32* %7, align 4
  %59 = add nsw i32 %58, 1
  store i32 %59, i32* %7, align 4
  br label %15

60:                                               ; preds = %15
  %61 = load i32, i32* %4, align 4
  %62 = sub nsw i32 %61, 1
  %63 = sext i32 %62 to i64
  %64 = getelementptr inbounds [100 x i32], [100 x i32]* %8, i64 0, i64 %63
  %65 = load i32, i32* %64, align 4
  %66 = call i32 (i8*, ...) @printf(i8* getelementptr inbounds ([3 x i8], [3 x i8]* @.str.1, i64 0, i64 0), i32 %65)
  %67 = load i32, i32* %3, align 4
  ret i32 %67
}

declare dso_local i32 @printf(i8*, ...) #1


!llvm.module.flags = !{!0}
!llvm.ident = !{!1}

!0 = !{i32 1, !"wchar_size", i32 4}
!1 = !{!"clang version 10.0.0-4ubuntu1 "}
